target datalayout = "e-m:e-p270:32:32-p271:32:32-p272:64:64-i64:64-i128:128-f80:128-n8:16:32:64-S128"
target triple = "x86_64-pc-linux-gnu"

@_ZN6icu_77L10syntax2000E = internal constant [10 x i32] [i32 0, i32 -1, i32 -65536, i32 2147418367, i32 2146435070, i32 -65536, i32 4194303, i32 -1048576, i32 -242, i32 65537], align 16

; Function Attrs: mustprogress nounwind uwtable
define noundef signext i8 @_ZN6icu_7712PatternProps8isSyntaxEi(i32 noundef %0) #0 align 2 {
  %2 = alloca i8, align 1
  %3 = alloca i32, align 4
  %4 = alloca i32, align 4
  store i32 %0, ptr %3, align 4, !tbaa !3
  %5 = load i32, ptr %3, align 4, !tbaa !3
  %6 = icmp slt i32 %5, 0
  br i1 %6, label %7, label %8

7:                                                ; preds = %1
  store i8 0, ptr %2, align 1
  br label %59

8:                                                ; preds = %1
  %9 = load i32, ptr %3, align 4, !tbaa !3
  %10 = icmp sle i32 %9, 255
  br i1 %10, label %11, label %20

11:                                               ; preds = %8
  %12 = load i32, ptr %3, align 4, !tbaa !3
  %13 = sext i32 %12 to i64
  %14 = getelementptr inbounds [256 x i8], ptr @_ZN6icu_77L6latin1E, i64 0, i64 %13
  %15 = load i8, ptr %14, align 1, !tbaa !7
  %16 = zext i8 %15 to i32
  %17 = ashr i32 %16, 1
  %18 = and i32 %17, 1
  %19 = trunc i32 %18 to i8
  store i8 %19, ptr %2, align 1
  br label %59

20:                                               ; preds = %8
  %21 = load i32, ptr %3, align 4, !tbaa !3
  %22 = icmp slt i32 %21, 8208
  br i1 %22, label %23, label %24

23:                                               ; preds = %20
  store i8 0, ptr %2, align 1
  br label %59

24:                                               ; preds = %20
  %25 = load i32, ptr %3, align 4, !tbaa !3
  %26 = icmp sle i32 %25, 12336
  br i1 %26, label %27, label %43

27:                                               ; preds = %24
  call void @llvm.lifetime.start.p0(i64 4, ptr %4) #5
  %28 = load i32, ptr %3, align 4, !tbaa !3
  %29 = sub nsw i32 %28, 8192
  %30 = ashr i32 %29, 5
  %31 = sext i32 %30 to i64
  %32 = getelementptr inbounds [130 x i8], ptr @_ZN6icu_77L9index2000E, i64 0, i64 %31
  %33 = load i8, ptr %32, align 1, !tbaa !7
  %34 = zext i8 %33 to i64
  %35 = getelementptr inbounds nuw [10 x i32], ptr @_ZN6icu_77L10syntax2000E, i64 0, i64 %34
  %36 = load i32, ptr %35, align 4, !tbaa !3
  store i32 %36, ptr %4, align 4, !tbaa !3
  %37 = load i32, ptr %4, align 4, !tbaa !3
  %38 = load i32, ptr %3, align 4, !tbaa !3
  %39 = and i32 %38, 31
  %40 = lshr i32 %37, %39
  %41 = and i32 %40, 1
  %42 = trunc i32 %41 to i8
  store i8 %42, ptr %2, align 1
  call void @llvm.lifetime.end.p0(i64 4, ptr %4) #5
  br label %59

43:                                               ; preds = %24
  %44 = load i32, ptr %3, align 4, !tbaa !3
  %45 = icmp sle i32 64830, %44
  br i1 %45, label %46, label %58

46:                                               ; preds = %43
  %47 = load i32, ptr %3, align 4, !tbaa !3
  %48 = icmp sle i32 %47, 65094
  br i1 %48, label %49, label %58

49:                                               ; preds = %46
  %50 = load i32, ptr %3, align 4, !tbaa !3
  %51 = icmp sle i32 %50, 64831
  br i1 %51, label %55, label %52

52:                                               ; preds = %49
  %53 = load i32, ptr %3, align 4, !tbaa !3
  %54 = icmp sle i32 65093, %53
  br label %55

55:                                               ; preds = %52, %49
  %56 = phi i1 [ true, %49 ], [ %54, %52 ]
  %57 = zext i1 %56 to i8
  store i8 %57, ptr %2, align 1
  br label %59

58:                                               ; preds = %46, %43
  store i8 0, ptr %2, align 1
  br label %59

59:                                               ; preds = %58, %55, %27, %23, %11, %7
  %60 = load i8, ptr %2, align 1
  ret i8 %60
}