; Function Attrs: mustprogress nofree norecurse nosync nounwind willreturn memory(none) uwtable
define noundef signext range(i8 0, 2) i8 @_ZN6icu_7712PatternProps8isSyntaxEi(i32 noundef %0) local_unnamed_addr #0 align 2 {
  %2 = icmp slt i32 %0, 0
  br i1 %2, label %34, label %3

3:                                                ; preds = %1
  %4 = icmp samesign ult i32 %0, 256
  br i1 %4, label %5, label %11

5:                                                ; preds = %3
  %6 = zext nneg i32 %0 to i64
  %7 = getelementptr inbounds nuw [256 x i8], ptr @_ZN6icu_77L6latin1E, i64 0, i64 %6
  %8 = load i8, ptr %7, align 1, !tbaa !3
  %9 = lshr i8 %8, 1
  %10 = and i8 %9, 1
  br label %34

11:                                               ; preds = %3
  %12 = icmp samesign ult i32 %0, 8208
  br i1 %12, label %34, label %13

13:                                               ; preds = %11
  %14 = icmp samesign ult i32 %0, 12337
  br i1 %14, label %15, label %28

15:                                               ; preds = %13
  %16 = add nsw i32 %0, -8192
  %17 = lshr i32 %16, 5
  %18 = zext nneg i32 %17 to i64
  %19 = getelementptr inbounds nuw [130 x i8], ptr @_ZN6icu_77L9index2000E, i64 0, i64 %18
  %20 = load i8, ptr %19, align 1, !tbaa !3
  %21 = zext i8 %20 to i64
  %22 = getelementptr inbounds nuw [10 x i32], ptr @_ZN6icu_77L10syntax2000E, i64 0, i64 %21
  %23 = load i32, ptr %22, align 4, !tbaa !6
  %24 = and i32 %0, 31
  %25 = lshr i32 %23, %24
  %26 = trunc i32 %25 to i8
  %27 = and i8 %26, 1
  br label %34

28:                                               ; preds = %13
  %29 = add nsw i32 %0, -64830
  %or.cond = icmp ult i32 %29, 265
  br i1 %or.cond, label %30, label %34

30:                                               ; preds = %28
  %31 = add nsw i32 %0, -65093
  %32 = icmp ult i32 %31, -261
  %33 = zext i1 %32 to i8
  br label %34

34:                                               ; preds = %28, %11, %1, %30, %15, %5
  %.0 = phi i8 [ %10, %5 ], [ %27, %15 ], [ %33, %30 ], [ 0, %1 ], [ 0, %11 ], [ 0, %28 ]
  ret i8 %.0
}